; Function Attrs: mustprogress nounwind uwtable
define hidden void @_ZN22ThreadLocalAllocBuffer6resizeEv(ptr noundef nonnull align 8 dereferenceable(116) %0) local_unnamed_addr #3 align 2 {
  %2 = getelementptr inbounds i8, ptr %0, i64 96
  %3 = load float, ptr %2, align 8
  %4 = load ptr, ptr @_ZN8Universe14_collectedHeapE, align 8
  %5 = getelementptr inbounds i8, ptr %0, i64 -432
  %6 = load ptr, ptr %4, align 8
  %7 = getelementptr inbounds i8, ptr %6, i64 160
  %8 = load ptr, ptr %7, align 8
  %9 = tail call noundef i64 %8(ptr noundef nonnull align 8 dereferenceable(104) %4, ptr noundef nonnull %5) #16
  %10 = lshr i64 %9, 3
  %11 = uitofp nneg i64 %10 to float
  %12 = fmul float %3, %11
  %13 = fptoui float %12 to i64
  %14 = load i32, ptr @_ZN22ThreadLocalAllocBuffer15_target_refillsE, align 4
  %15 = zext i32 %14 to i64
  %16 = udiv i64 %13, %15
  %17 = load i64, ptr @MinTLABSize, align 8
  %18 = lshr i64 %17, 3
  %19 = load i32, ptr @MinObjAlignment, align 4
  %20 = add nsw i32 %19, -1
  %21 = sext i32 %20 to i64
  %22 = add nsw i64 %18, %21
  %23 = sub i32 0, %19
  %24 = sext i32 %23 to i64
  %25 = and i64 %22, %24
  %26 = load i64, ptr @_ZN13CollectedHeap22_lab_alignment_reserveE, align 8
  %27 = load i32, ptr @_ZN22ThreadLocalAllocBuffer32_reserve_for_allocation_prefetchE, align 4
  %28 = sext i32 %27 to i64
  %29 = tail call noundef i64 @llvm.umax.i64(i64 %26, i64 %28)
  %30 = add i64 %29, %21
  %31 = and i64 %30, %24
  %32 = add i64 %31, %25
  %33 = load i64, ptr @_ZN22ThreadLocalAllocBuffer9_max_sizeE, align 8
  %34 = tail call noundef i64 @llvm.umax.i64(i64 %16, i64 %32)
  %35 = tail call noundef i64 @llvm.umin.i64(i64 %34, i64 %33)
  %36 = add i64 %35, %21
  %37 = and i64 %36, %24
  %38 = load volatile ptr, ptr getelementptr inbounds (i8, ptr @_ZN16LogTagSetMappingILN6LogTag4typeE49ELS1_162ELS1_0ELS1_0ELS1_0ELS1_0EE7_tagsetE, i64 48), align 8
  %.not = icmp eq ptr %38, null
  br i1 %.not, label %49, label %39

39:                                               ; preds = %1
  %40 = ptrtoint ptr %5 to i64
  %41 = getelementptr inbounds i8, ptr %0, i64 360
  %42 = load ptr, ptr %41, align 8
  %43 = getelementptr inbounds i8, ptr %42, i64 192
  %44 = load i32, ptr %43, align 8
  %45 = load float, ptr %2, align 8
  %46 = fpext float %45 to double
  %47 = getelementptr inbounds i8, ptr %0, i64 40
  %48 = load i64, ptr %47, align 8
  tail call void (ptr, ...) @_ZN7LogImplILN6LogTag4typeE49ELS1_162ELS1_0ELS1_0ELS1_0ELS1_0EE5writeILN8LogLevel4typeE1EEEvPKcz(ptr noundef nonnull @.str.4, i64 noundef %40, i32 noundef %44, i32 noundef %14, double noundef %46, i64 noundef %48, i64 noundef %37)
  br label %49

49:                                               ; preds = %1, %39
  %50 = getelementptr inbounds i8, ptr %0, i64 40
  store i64 %37, ptr %50, align 8
  %51 = load i64, ptr @TLABRefillWasteFraction, align 8
  %52 = udiv i64 %37, %51
  %53 = getelementptr inbounds i8, ptr %0, i64 48
  store i64 %52, ptr %53, align 8
  ret void
}